; Function Attrs: mustprogress uwtable
define noundef ptr @_ZN8proxygen11SessionPool14getTransactionEPNS_22HTTPTransactionHandlerE(ptr noundef nonnull align 8 dereferenceable(136) %this, ptr noundef %upstreamHandler) local_unnamed_addr #3 align 2 personality ptr @__gxx_personality_v0 {
entry:
  %m_header.i32.i = getelementptr inbounds i8, ptr %this, i64 72
  %0 = load ptr, ptr %m_header.i32.i, align 8
  %tobool.not.i7.i = icmp eq ptr %0, null
  %cmp.i8.i = icmp eq ptr %0, %m_header.i32.i
  %1 = or i1 %tobool.not.i7.i, %cmp.i8.i
  br i1 %1, label %if.then, label %while.body.lr.ph.i

while.body.lr.ph.i:                               ; preds = %entry
  %maxAge_.i = getelementptr inbounds i8, ptr %this, i64 32
  br label %while.body.i

while.body.i:                                     ; preds = %while.cond.backedge.i, %while.body.lr.ph.i
  %2 = phi ptr [ %0, %while.body.lr.ph.i ], [ %3, %while.cond.backedge.i ]
  %add.ptr.i.i = getelementptr inbounds i8, ptr %2, i64 -8
  %agg.tmp.sroa.0.0.copyload.i = load i64, ptr %maxAge_.i, align 8
  %call3.i = tail call noundef zeroext i1 @_ZNK8proxygen13SessionHolder12shouldAgeOutENSt6chrono8durationIlSt5ratioILl1ELl1000EEEE(ptr noundef nonnull align 8 dereferenceable(152) %add.ptr.i.i, i64 %agg.tmp.sroa.0.0.copyload.i)
  br i1 %call3.i, label %if.then.i, label %if.end.i

if.then.i:                                        ; preds = %while.body.i
  tail call void @_ZN8proxygen13SessionHolder5drainEv(ptr noundef nonnull align 8 dereferenceable(152) %add.ptr.i.i)
  br label %while.cond.backedge.i

while.cond.backedge.i:                            ; preds = %if.end.i, %if.then.i
  %3 = load ptr, ptr %m_header.i32.i, align 8
  %tobool.not.i.i = icmp eq ptr %3, null
  %cmp.i.i = icmp eq ptr %3, %m_header.i32.i
  %4 = or i1 %tobool.not.i.i, %cmp.i.i
  br i1 %4, label %if.then, label %while.body.i, !llvm.loop !8

if.end.i:                                         ; preds = %while.body.i
  %call4.i = tail call noundef ptr @_ZN8proxygen13SessionHolder14newTransactionEPNS_22HTTPTransactionHandlerE(ptr noundef nonnull align 8 dereferenceable(152) %add.ptr.i.i, ptr noundef %upstreamHandler)
  tail call void @_ZN8proxygen13SessionHolder6unlinkEv(ptr noundef nonnull align 8 dereferenceable(152) %add.ptr.i.i)
  tail call void @_ZN8proxygen13SessionHolder4linkEv(ptr noundef nonnull align 8 dereferenceable(152) %add.ptr.i.i)
  %tobool.not.i = icmp eq ptr %call4.i, null
  br i1 %tobool.not.i, label %while.cond.backedge.i, label %if.end

if.then:                                          ; preds = %while.cond.backedge.i, %entry
  tail call void @_ZN8proxygen11SessionPool23purgeExcessIdleSessionsEv(ptr noundef nonnull align 8 dereferenceable(136) %this)
  %m_header.i32.i3 = getelementptr inbounds i8, ptr %this, i64 48
  %5 = load ptr, ptr %m_header.i32.i3, align 8
  %tobool.not.i7.i4 = icmp eq ptr %5, null
  %cmp.i8.i5 = icmp eq ptr %5, %m_header.i32.i3
  %6 = or i1 %tobool.not.i7.i4, %cmp.i8.i5
  br i1 %6, label %if.end, label %while.body.lr.ph.i6

while.body.lr.ph.i6:                              ; preds = %if.then
  %maxAge_.i7 = getelementptr inbounds i8, ptr %this, i64 32
  br label %while.body.i8

while.body.i8:                                    ; preds = %while.cond.backedge.i16, %while.body.lr.ph.i6
  %7 = phi ptr [ %5, %while.body.lr.ph.i6 ], [ %8, %while.cond.backedge.i16 ]
  %add.ptr.i.i9 = getelementptr inbounds i8, ptr %7, i64 -8
  %agg.tmp.sroa.0.0.copyload.i10 = load i64, ptr %maxAge_.i7, align 8
  %call3.i11 = tail call noundef zeroext i1 @_ZNK8proxygen13SessionHolder12shouldAgeOutENSt6chrono8durationIlSt5ratioILl1ELl1000EEEE(ptr noundef nonnull align 8 dereferenceable(152) %add.ptr.i.i9, i64 %agg.tmp.sroa.0.0.copyload.i10)
  br i1 %call3.i11, label %if.then.i19, label %if.end.i12

if.then.i19:                                      ; preds = %while.body.i8
  tail call void @_ZN8proxygen13SessionHolder5drainEv(ptr noundef nonnull align 8 dereferenceable(152) %add.ptr.i.i9)
  br label %while.cond.backedge.i16

while.cond.backedge.i16:                          ; preds = %if.end.i12, %if.then.i19
  %8 = load ptr, ptr %m_header.i32.i3, align 8
  %tobool.not.i.i17 = icmp eq ptr %8, null
  %cmp.i.i18 = icmp eq ptr %8, %m_header.i32.i3
  %9 = or i1 %tobool.not.i.i17, %cmp.i.i18
  br i1 %9, label %if.end, label %while.body.i8, !llvm.loop !8

if.end.i12:                                       ; preds = %while.body.i8
  %call4.i13 = tail call noundef ptr @_ZN8proxygen13SessionHolder14newTransactionEPNS_22HTTPTransactionHandlerE(ptr noundef nonnull align 8 dereferenceable(152) %add.ptr.i.i9, ptr noundef %upstreamHandler)
  tail call void @_ZN8proxygen13SessionHolder6unlinkEv(ptr noundef nonnull align 8 dereferenceable(152) %add.ptr.i.i9)
  tail call void @_ZN8proxygen13SessionHolder4linkEv(ptr noundef nonnull align 8 dereferenceable(152) %add.ptr.i.i9)
  %tobool.not.i14 = icmp eq ptr %call4.i13, null
  br i1 %tobool.not.i14, label %while.cond.backedge.i16, label %if.end

if.end:                                           ; preds = %if.end.i, %if.end.i12, %while.cond.backedge.i16, %if.then
  %txn.0 = phi ptr [ null, %if.then ], [ %call4.i13, %if.end.i12 ], [ null, %while.cond.backedge.i16 ], [ %call4.i, %if.end.i ]
  ret ptr %txn.0
}